target datalayout = "e-m:e-p270:32:32-p271:32:32-p272:64:64-i64:64-i128:128-f80:128-n8:16:32:64-S128"
target triple = "x86_64-pc-linux-gnu"

%struct.fdt_header = type { i32, i32, i32, i32, i32, i32, i32, i32, i32, i32 }

; Function Attrs: inlinehint nounwind uwtable
define internal ptr @fdt_offset_ptr_(ptr noundef %0, i32 noundef %1) #3 {
  %3 = alloca ptr, align 8
  %4 = alloca i32, align 4
  store ptr %0, ptr %3, align 8
  store i32 %1, ptr %4, align 4
  %5 = load ptr, ptr %3, align 8
  %6 = load ptr, ptr %3, align 8
  %7 = getelementptr inbounds nuw %struct.fdt_header, ptr %6, i32 0, i32 2
  %8 = call i32 @fdt32_ld(ptr noundef %7)
  %9 = zext i32 %8 to i64
  %10 = getelementptr inbounds nuw i8, ptr %5, i64 %9
  %11 = load i32, ptr %4, align 4
  %12 = sext i32 %11 to i64
  %13 = getelementptr inbounds i8, ptr %10, i64 %12
  ret ptr %13
}

; Function Attrs: inlinehint nounwind uwtable
define internal ptr @fdt_offset_ptr_w_(ptr noundef %0, i32 noundef %1) #3 {
  %3 = alloca ptr, align 8
  %4 = alloca i32, align 4
  store ptr %0, ptr %3, align 8
  store i32 %1, ptr %4, align 4
  %5 = load ptr, ptr %3, align 8
  %6 = load i32, ptr %4, align 4
  %7 = call ptr @fdt_offset_ptr_(ptr noundef %5, i32 noundef %6)
  %8 = ptrtoint ptr %7 to i64
  %9 = inttoptr i64 %8 to ptr
  ret ptr %9
}

; Function Attrs: inlinehint nounwind uwtable
define internal void @fdt_set_size_dt_struct(ptr noundef %0, i32 noundef %1) #3 {
  %3 = alloca ptr, align 8
  %4 = alloca i32, align 4
  %5 = alloca ptr, align 8
  store ptr %0, ptr %3, align 8
  store i32 %1, ptr %4, align 4
  call void @llvm.lifetime.start.p0(i64 8, ptr %5) #7
  %6 = load ptr, ptr %3, align 8
  store ptr %6, ptr %5, align 8
  %7 = load i32, ptr %4, align 4
  %8 = call i32 @cpu_to_fdt32(i32 noundef %7)
  %9 = load ptr, ptr %5, align 8
  %10 = getelementptr inbounds nuw %struct.fdt_header, ptr %9, i32 0, i32 9
  store i32 %8, ptr %10, align 4
  call void @llvm.lifetime.end.p0(i64 8, ptr %5) #7
  ret void
}

; Function Attrs: inlinehint nounwind uwtable
define internal i32 @fdt32_ld(ptr noundef %0) #3 {
  %2 = alloca ptr, align 8
  %3 = alloca ptr, align 8
  store ptr %0, ptr %2, align 8
  call void @llvm.lifetime.start.p0(i64 8, ptr %3) #7
  %4 = load ptr, ptr %2, align 8
  store ptr %4, ptr %3, align 8
  %5 = load ptr, ptr %3, align 8
  %6 = getelementptr inbounds i8, ptr %5, i64 0
  %7 = load i8, ptr %6, align 1
  %8 = zext i8 %7 to i32
  %9 = shl i32 %8, 24
  %10 = load ptr, ptr %3, align 8
  %11 = getelementptr inbounds i8, ptr %10, i64 1
  %12 = load i8, ptr %11, align 1
  %13 = zext i8 %12 to i32
  %14 = shl i32 %13, 16
  %15 = or i32 %9, %14
  %16 = load ptr, ptr %3, align 8
  %17 = getelementptr inbounds i8, ptr %16, i64 2
  %18 = load i8, ptr %17, align 1
  %19 = zext i8 %18 to i32
  %20 = shl i32 %19, 8
  %21 = or i32 %15, %20
  %22 = load ptr, ptr %3, align 8
  %23 = getelementptr inbounds i8, ptr %22, i64 3
  %24 = load i8, ptr %23, align 1
  %25 = zext i8 %24 to i32
  %26 = or i32 %21, %25
  call void @llvm.lifetime.end.p0(i64 8, ptr %3) #7
  ret i32 %26
}

; Function Attrs: inlinehint nounwind uwtable
define internal zeroext i1 @can_assume_(i32 noundef %0) #3 {
  %2 = alloca i32, align 4
  store i32 %0, ptr %2, align 4
  %3 = load i32, ptr %2, align 4
  %4 = and i32 0, %3
  %5 = icmp ne i32 %4, 0
  ret i1 %5
}

; Function Attrs: nounwind uwtable
define internal i32 @fdt_sw_probe_(ptr noundef %0) #0 {
  %2 = alloca i32, align 4
  %3 = alloca ptr, align 8
  store ptr %0, ptr %3, align 8
  %4 = call zeroext i1 @can_assume_(i32 noundef 2)
  br i1 %4, label %19, label %5

5:                                                ; preds = %1
  %6 = load ptr, ptr %3, align 8
  %7 = getelementptr inbounds nuw %struct.fdt_header, ptr %6, i32 0, i32 0
  %8 = call i32 @fdt32_ld(ptr noundef %7)
  %9 = icmp eq i32 %8, -804389139
  br i1 %9, label %10, label %11

10:                                               ; preds = %5
  store i32 -7, ptr %2, align 4
  br label %20

11:                                               ; preds = %5
  %12 = load ptr, ptr %3, align 8
  %13 = getelementptr inbounds nuw %struct.fdt_header, ptr %12, i32 0, i32 0
  %14 = call i32 @fdt32_ld(ptr noundef %13)
  %15 = icmp ne i32 %14, 804389138
  br i1 %15, label %16, label %17

16:                                               ; preds = %11
  store i32 -9, ptr %2, align 4
  br label %20

17:                                               ; preds = %11
  br label %18

18:                                               ; preds = %17
  br label %19

19:                                               ; preds = %18, %1
  store i32 0, ptr %2, align 4
  br label %20

20:                                               ; preds = %19, %16, %10
  %21 = load i32, ptr %2, align 4
  ret i32 %21
}

; Function Attrs: inlinehint nounwind uwtable
define internal i32 @cpu_to_fdt32(i32 noundef %0) #3 {
  %2 = alloca i32, align 4
  store i32 %0, ptr %2, align 4
  %3 = getelementptr inbounds i8, ptr %2, i64 0
  %4 = load i8, ptr %3, align 4
  %5 = zext i8 %4 to i64
  %6 = shl i64 %5, 24
  %7 = getelementptr inbounds i8, ptr %2, i64 1
  %8 = load i8, ptr %7, align 1
  %9 = zext i8 %8 to i64
  %10 = shl i64 %9, 16
  %11 = or i64 %6, %10
  %12 = getelementptr inbounds i8, ptr %2, i64 2
  %13 = load i8, ptr %12, align 2
  %14 = zext i8 %13 to i64
  %15 = shl i64 %14, 8
  %16 = or i64 %11, %15
  %17 = getelementptr inbounds i8, ptr %2, i64 3
  %18 = load i8, ptr %17, align 1
  %19 = zext i8 %18 to i64
  %20 = or i64 %16, %19
  %21 = trunc i64 %20 to i32
  ret i32 %21
}

; Function Attrs: nounwind uwtable
define internal ptr @fdt_grab_space_(ptr noundef %0, i64 noundef %1) #0 {
  %3 = alloca ptr, align 8
  %4 = alloca ptr, align 8
  %5 = alloca i64, align 8
  %6 = alloca i32, align 4
  %7 = alloca i32, align 4
  %8 = alloca i32, align 4
  store ptr %0, ptr %4, align 8
  store i64 %1, ptr %5, align 8
  call void @llvm.lifetime.start.p0(i64 4, ptr %6) #7
  %9 = load ptr, ptr %4, align 8
  %10 = getelementptr inbounds nuw %struct.fdt_header, ptr %9, i32 0, i32 9
  %11 = call i32 @fdt32_ld(ptr noundef %10)
  store i32 %11, ptr %6, align 4
  call void @llvm.lifetime.start.p0(i64 4, ptr %7) #7
  store i32 0, ptr %7, align 4, !annotation !4
  %12 = load ptr, ptr %4, align 8
  %13 = getelementptr inbounds nuw %struct.fdt_header, ptr %12, i32 0, i32 1
  %14 = call i32 @fdt32_ld(ptr noundef %13)
  %15 = load ptr, ptr %4, align 8
  %16 = getelementptr inbounds nuw %struct.fdt_header, ptr %15, i32 0, i32 2
  %17 = call i32 @fdt32_ld(ptr noundef %16)
  %18 = sub i32 %14, %17
  %19 = load ptr, ptr %4, align 8
  %20 = getelementptr inbounds nuw %struct.fdt_header, ptr %19, i32 0, i32 8
  %21 = call i32 @fdt32_ld(ptr noundef %20)
  %22 = sub i32 %18, %21
  store i32 %22, ptr %7, align 4
  %23 = load i32, ptr %6, align 4
  %24 = zext i32 %23 to i64
  %25 = load i64, ptr %5, align 8
  %26 = add i64 %24, %25
  %27 = load i32, ptr %6, align 4
  %28 = zext i32 %27 to i64
  %29 = icmp ult i64 %26, %28
  br i1 %29, label %38, label %30

30:                                               ; preds = %2
  %31 = load i32, ptr %6, align 4
  %32 = zext i32 %31 to i64
  %33 = load i64, ptr %5, align 8
  %34 = add i64 %32, %33
  %35 = load i32, ptr %7, align 4
  %36 = zext i32 %35 to i64
  %37 = icmp ugt i64 %34, %36
  br i1 %37, label %38, label %39

38:                                               ; preds = %30, %2
  store ptr null, ptr %3, align 8
  store i32 1, ptr %8, align 4
  br label %49

39:                                               ; preds = %30
  %40 = load ptr, ptr %4, align 8
  %41 = load i32, ptr %6, align 4
  %42 = zext i32 %41 to i64
  %43 = load i64, ptr %5, align 8
  %44 = add i64 %42, %43
  %45 = trunc i64 %44 to i32
  call void @fdt_set_size_dt_struct(ptr noundef %40, i32 noundef %45)
  %46 = load ptr, ptr %4, align 8
  %47 = load i32, ptr %6, align 4
  %48 = call ptr @fdt_offset_ptr_w_(ptr noundef %46, i32 noundef %47)
  store ptr %48, ptr %3, align 8
  store i32 1, ptr %8, align 4
  br label %49

49:                                               ; preds = %39, %38
  call void @llvm.lifetime.end.p0(i64 4, ptr %7) #7
  call void @llvm.lifetime.end.p0(i64 4, ptr %6) #7
  %50 = load ptr, ptr %3, align 8
  ret ptr %50
}

; Function Attrs: nounwind uwtable
define internal i32 @fdt_sw_probe_struct_(ptr noundef %0) #0 {
  %2 = alloca i32, align 4
  %3 = alloca ptr, align 8
  %4 = alloca i32, align 4
  %5 = alloca i32, align 4
  store ptr %0, ptr %3, align 8
  call void @llvm.lifetime.start.p0(i64 4, ptr %4) #7
  %6 = load ptr, ptr %3, align 8
  %7 = call i32 @fdt_sw_probe_(ptr noundef %6)
  store i32 %7, ptr %4, align 4
  %8 = load i32, ptr %4, align 4
  %9 = icmp ne i32 %8, 0
  br i1 %9, label %10, label %12

10:                                               ; preds = %1
  %11 = load i32, ptr %4, align 4
  store i32 %11, ptr %2, align 4
  store i32 1, ptr %5, align 4
  br label %24

12:                                               ; preds = %1
  %13 = call zeroext i1 @can_assume_(i32 noundef 2)
  br i1 %13, label %23, label %14

14:                                               ; preds = %12
  %15 = load ptr, ptr %3, align 8
  %16 = getelementptr inbounds nuw %struct.fdt_header, ptr %15, i32 0, i32 3
  %17 = call i32 @fdt32_ld(ptr noundef %16)
  %18 = load ptr, ptr %3, align 8
  %19 = getelementptr inbounds nuw %struct.fdt_header, ptr %18, i32 0, i32 1
  %20 = call i32 @fdt32_ld(ptr noundef %19)
  %21 = icmp ne i32 %17, %20
  br i1 %21, label %22, label %23

22:                                               ; preds = %14
  store i32 -7, ptr %2, align 4
  store i32 1, ptr %5, align 4
  br label %24

23:                                               ; preds = %14, %12
  store i32 0, ptr %2, align 4
  store i32 1, ptr %5, align 4
  br label %24

24:                                               ; preds = %23, %22, %10
  call void @llvm.lifetime.end.p0(i64 4, ptr %4) #7
  %25 = load i32, ptr %2, align 4
  ret i32 %25
}

; Function Attrs: nounwind uwtable
define dso_local i32 @fdt_end_node(ptr noundef %0) #0 {
  %2 = alloca i32, align 4
  %3 = alloca ptr, align 8
  %4 = alloca ptr, align 8
  %5 = alloca i32, align 4
  %6 = alloca i32, align 4
  store ptr %0, ptr %3, align 8
  call void @llvm.lifetime.start.p0(i64 8, ptr %4) #7
  store ptr null, ptr %4, align 8, !annotation !4
  call void @llvm.lifetime.start.p0(i64 4, ptr %5) #7
  store i32 0, ptr %5, align 4, !annotation !4
  %7 = load ptr, ptr %3, align 8
  %8 = call i32 @fdt_sw_probe_struct_(ptr noundef %7)
  store i32 %8, ptr %5, align 4
  %9 = icmp ne i32 %8, 0
  br i1 %9, label %10, label %12

10:                                               ; preds = %1
  %11 = load i32, ptr %5, align 4
  store i32 %11, ptr %2, align 4
  store i32 1, ptr %6, align 4
  br label %13

12:                                               ; preds = %1
  store i32 0, ptr %6, align 4
  br label %13

13:                                               ; preds = %12, %10
  call void @llvm.lifetime.end.p0(i64 4, ptr %5) #7
  %14 = load i32, ptr %6, align 4
  switch i32 %14, label %24 [
    i32 0, label %15
  ]

15:                                               ; preds = %13
  %16 = load ptr, ptr %3, align 8
  %17 = call ptr @fdt_grab_space_(ptr noundef %16, i64 noundef 4)
  store ptr %17, ptr %4, align 8
  %18 = load ptr, ptr %4, align 8
  %19 = icmp ne ptr %18, null
  br i1 %19, label %21, label %20

20:                                               ; preds = %15
  store i32 -3, ptr %2, align 4
  store i32 1, ptr %6, align 4
  br label %24

21:                                               ; preds = %15
  %22 = call i32 @cpu_to_fdt32(i32 noundef 2)
  %23 = load ptr, ptr %4, align 8
  store i32 %22, ptr %23, align 4
  store i32 0, ptr %2, align 4
  store i32 1, ptr %6, align 4
  br label %24

24:                                               ; preds = %21, %20, %13
  call void @llvm.lifetime.end.p0(i64 8, ptr %4) #7
  %25 = load i32, ptr %2, align 4
  ret i32 %25
}