; Function Attrs: mustprogress nofree norecurse nosync nounwind willreturn memory(argmem: readwrite) uwtable
define dso_local range(i32 -9, 1) i32 @fdt_end_node(ptr noundef captures(none) %0) local_unnamed_addr #3 {
  %2 = load i8, ptr %0, align 1
  %3 = zext i8 %2 to i32
  %4 = shl nuw i32 %3, 24
  %5 = getelementptr inbounds nuw i8, ptr %0, i64 1
  %6 = load i8, ptr %5, align 1
  %7 = zext i8 %6 to i32
  %8 = shl nuw nsw i32 %7, 16
  %9 = or disjoint i32 %8, %4
  %10 = getelementptr inbounds nuw i8, ptr %0, i64 2
  %11 = load i8, ptr %10, align 1
  %12 = zext i8 %11 to i32
  %13 = shl nuw nsw i32 %12, 8
  %14 = or disjoint i32 %9, %13
  %15 = getelementptr inbounds nuw i8, ptr %0, i64 3
  %16 = load i8, ptr %15, align 1
  %17 = zext i8 %16 to i32
  %18 = or disjoint i32 %14, %17
  %.not.i.i = icmp eq i32 %18, 804389138
  br i1 %.not.i.i, label %19, label %fdt_sw_probe_struct_.exit

19:                                               ; preds = %1
  %20 = getelementptr inbounds nuw i8, ptr %0, i64 12
  %21 = load i8, ptr %20, align 1
  %22 = zext i8 %21 to i32
  %23 = shl nuw i32 %22, 24
  %24 = getelementptr inbounds nuw i8, ptr %0, i64 13
  %25 = load i8, ptr %24, align 1
  %26 = zext i8 %25 to i32
  %27 = shl nuw nsw i32 %26, 16
  %28 = or disjoint i32 %27, %23
  %29 = getelementptr inbounds nuw i8, ptr %0, i64 14
  %30 = load i8, ptr %29, align 1
  %31 = zext i8 %30 to i32
  %32 = shl nuw nsw i32 %31, 8
  %33 = or disjoint i32 %28, %32
  %34 = getelementptr inbounds nuw i8, ptr %0, i64 15
  %35 = load i8, ptr %34, align 1
  %36 = zext i8 %35 to i32
  %37 = or disjoint i32 %33, %36
  %38 = getelementptr inbounds nuw i8, ptr %0, i64 4
  %39 = load i8, ptr %38, align 1
  %40 = zext i8 %39 to i32
  %41 = shl nuw i32 %40, 24
  %42 = getelementptr inbounds nuw i8, ptr %0, i64 5
  %43 = load i8, ptr %42, align 1
  %44 = zext i8 %43 to i32
  %45 = shl nuw nsw i32 %44, 16
  %46 = or disjoint i32 %45, %41
  %47 = getelementptr inbounds nuw i8, ptr %0, i64 6
  %48 = load i8, ptr %47, align 1
  %49 = zext i8 %48 to i32
  %50 = shl nuw nsw i32 %49, 8
  %51 = or disjoint i32 %46, %50
  %52 = getelementptr inbounds nuw i8, ptr %0, i64 7
  %53 = load i8, ptr %52, align 1
  %54 = zext i8 %53 to i32
  %55 = or disjoint i32 %51, %54
  %.not6.i = icmp eq i32 %37, %55
  br i1 %.not6.i, label %fdt_sw_probe_struct_.exit.thread, label %fdt_sw_probe_struct_.exit.thread12

fdt_sw_probe_struct_.exit:                        ; preds = %1
  %56 = icmp eq i32 %18, -804389139
  %.0.i.i = select i1 %56, i32 -7, i32 -9
  br label %fdt_sw_probe_struct_.exit.thread12

fdt_sw_probe_struct_.exit.thread:                 ; preds = %19
  %57 = getelementptr inbounds nuw i8, ptr %0, i64 36
  %58 = load i8, ptr %57, align 1
  %59 = zext i8 %58 to i32
  %60 = shl nuw i32 %59, 24
  %61 = getelementptr inbounds nuw i8, ptr %0, i64 37
  %62 = load i8, ptr %61, align 1
  %63 = zext i8 %62 to i32
  %64 = shl nuw nsw i32 %63, 16
  %65 = or disjoint i32 %64, %60
  %66 = getelementptr inbounds nuw i8, ptr %0, i64 38
  %67 = load i8, ptr %66, align 1
  %68 = zext i8 %67 to i32
  %69 = shl nuw nsw i32 %68, 8
  %70 = or disjoint i32 %65, %69
  %71 = getelementptr inbounds nuw i8, ptr %0, i64 39
  %72 = load i8, ptr %71, align 1
  %73 = zext i8 %72 to i32
  %74 = or disjoint i32 %70, %73
  %75 = zext i32 %74 to i64
  %76 = add nuw nsw i64 %75, 4
  %77 = getelementptr inbounds nuw i8, ptr %0, i64 8
  %78 = load i8, ptr %77, align 1
  %79 = getelementptr inbounds nuw i8, ptr %0, i64 33
  %80 = load i8, ptr %79, align 1
  %81 = zext i8 %80 to i64
  %.neg19.i = mul nuw nsw i64 %81, 4294901760
  %82 = getelementptr inbounds nuw i8, ptr %0, i64 32
  %83 = load i8, ptr %82, align 1
  %84 = zext i8 %83 to i64
  %85 = getelementptr inbounds nuw i8, ptr %0, i64 34
  %86 = load i8, ptr %85, align 1
  %87 = zext i8 %86 to i64
  %88 = shl nuw nsw i64 %87, 8
  %89 = getelementptr inbounds nuw i8, ptr %0, i64 35
  %90 = load i8, ptr %89, align 1
  %91 = zext i8 %90 to i64
  %92 = or disjoint i64 %88, %91
  %93 = getelementptr inbounds nuw i8, ptr %0, i64 9
  %94 = load i8, ptr %93, align 1
  %95 = zext i8 %94 to i64
  %96 = zext i8 %78 to i64
  %.neg24.i = mul nuw nsw i64 %96, 4278190080
  %97 = shl nuw nsw i64 %95, 16
  %98 = getelementptr inbounds nuw i8, ptr %0, i64 10
  %99 = load i8, ptr %98, align 1
  %100 = zext i8 %99 to i64
  %101 = shl nuw nsw i64 %100, 8
  %102 = or disjoint i64 %101, %97
  %103 = getelementptr inbounds nuw i8, ptr %0, i64 11
  %104 = load i8, ptr %103, align 1
  %105 = zext i8 %104 to i64
  %106 = or disjoint i64 %102, %105
  %107 = zext i8 %43 to i64
  %108 = shl nuw nsw i64 %107, 16
  %109 = zext i8 %39 to i64
  %110 = shl nuw nsw i64 %109, 24
  %111 = or disjoint i64 %110, %108
  %112 = zext i8 %48 to i64
  %113 = shl nuw nsw i64 %112, 8
  %114 = or disjoint i64 %111, %113
  %115 = zext i8 %53 to i64
  %116 = or disjoint i64 %114, %115
  %.neg28.i = add nuw nsw i64 %.neg19.i, %.neg24.i
  %117 = shl nuw nsw i64 %84, 24
  %118 = add nuw nsw i64 %92, %106
  %119 = add nuw nsw i64 %117, %118
  %.neg17.i = sub nsw i64 %.neg28.i, %119
  %120 = add nsw i64 %.neg17.i, %116
  %121 = and i64 %120, 4294967295
  %122 = icmp samesign ugt i64 %76, %121
  br i1 %122, label %fdt_sw_probe_struct_.exit.thread12, label %123

123:                                              ; preds = %fdt_sw_probe_struct_.exit.thread
  %124 = trunc nuw i64 %76 to i32
  %rev.i.i.i = tail call noundef i32 @llvm.bswap.i32(i32 %124)
  store i32 %rev.i.i.i, ptr %57, align 4
  %125 = shl nuw nsw i64 %96, 24
  %126 = or disjoint i64 %97, %125
  %127 = or disjoint i64 %126, %101
  %128 = or disjoint i64 %127, %105
  %129 = getelementptr inbounds nuw i8, ptr %0, i64 %128
  %130 = sext i32 %74 to i64
  %131 = getelementptr inbounds i8, ptr %129, i64 %130
  store i32 33554432, ptr %131, align 4
  br label %fdt_sw_probe_struct_.exit.thread12

fdt_sw_probe_struct_.exit.thread12:               ; preds = %fdt_sw_probe_struct_.exit, %fdt_sw_probe_struct_.exit.thread, %19, %123
  %.1 = phi i32 [ 0, %123 ], [ %.0.i.i, %fdt_sw_probe_struct_.exit ], [ -7, %19 ], [ -3, %fdt_sw_probe_struct_.exit.thread ]
  ret i32 %.1
}